target datalayout = "e-m:e-p270:32:32-p271:32:32-p272:64:64-i64:64-i128:128-f80:128-n8:16:32:64-S128"
target triple = "x86_64-pc-linux-gnu"

%struct.HashMetaPageData = type { i32, i32, double, i16, i16, i16, i16, i32, i32, i32, i32, i32, i32, i32, [98 x i32], [1024 x i32] }

@LocalBufferBlockPointers = external global ptr, align 8
@BufferBlocks = external global ptr, align 8

; Function Attrs: inlinehint nounwind uwtable
define internal i32 @pg_leftmost_one_pos32(i32 noundef %0) #3 {
  %2 = alloca i32, align 4
  store i32 %0, ptr %2, align 4
  %3 = load i32, ptr %2, align 4
  %4 = call i32 @llvm.ctlz.i32(i32 %3, i1 true)
  %5 = sub i32 31, %4
  ret i32 %5
}

; Function Attrs: inlinehint nounwind uwtable
define internal i32 @pg_ceil_log2_32(i32 noundef %0) #3 {
  %2 = alloca i32, align 4
  %3 = alloca i32, align 4
  store i32 %0, ptr %3, align 4
  %4 = load i32, ptr %3, align 4
  %5 = icmp ult i32 %4, 2
  br i1 %5, label %6, label %7

6:                                                ; preds = %1
  store i32 0, ptr %2, align 4
  br label %12

7:                                                ; preds = %1
  %8 = load i32, ptr %3, align 4
  %9 = sub i32 %8, 1
  %10 = call i32 @pg_leftmost_one_pos32(i32 noundef %9)
  %11 = add i32 %10, 1
  store i32 %11, ptr %2, align 4
  br label %12

12:                                               ; preds = %7, %6
  %13 = load i32, ptr %2, align 4
  ret i32 %13
}

; Function Attrs: inlinehint nounwind uwtable
define internal ptr @BufferGetBlock(i32 noundef %0) #3 {
  %2 = alloca ptr, align 8
  %3 = alloca i32, align 4
  store i32 %0, ptr %3, align 4
  %4 = load i32, ptr %3, align 4
  %5 = icmp slt i32 %4, 0
  br i1 %5, label %6, label %14

6:                                                ; preds = %1
  %7 = load ptr, ptr @LocalBufferBlockPointers, align 8
  %8 = load i32, ptr %3, align 4
  %9 = sub i32 0, %8
  %10 = sub i32 %9, 1
  %11 = sext i32 %10 to i64
  %12 = getelementptr inbounds ptr, ptr %7, i64 %11
  %13 = load ptr, ptr %12, align 8
  store ptr %13, ptr %2, align 8
  br label %21

14:                                               ; preds = %1
  %15 = load ptr, ptr @BufferBlocks, align 8
  %16 = load i32, ptr %3, align 4
  %17 = sub i32 %16, 1
  %18 = sext i32 %17 to i64
  %19 = mul i64 %18, 8192
  %20 = getelementptr inbounds nuw i8, ptr %15, i64 %19
  store ptr %20, ptr %2, align 8
  br label %21

21:                                               ; preds = %14, %6
  %22 = load ptr, ptr %2, align 8
  ret ptr %22
}

; Function Attrs: nounwind uwtable
define dso_local i32 @_hash_spareindex(i32 noundef %0) #0 {
  %2 = alloca i32, align 4
  %3 = alloca i32, align 4
  %4 = alloca i32, align 4
  %5 = alloca i32, align 4
  %6 = alloca i32, align 4
  store i32 %0, ptr %3, align 4
  call void @llvm.lifetime.start.p0(i64 4, ptr %4) #6
  call void @llvm.lifetime.start.p0(i64 4, ptr %5) #6
  %7 = load i32, ptr %3, align 4
  %8 = call i32 @pg_ceil_log2_32(i32 noundef %7)
  store i32 %8, ptr %4, align 4
  %9 = load i32, ptr %4, align 4
  %10 = icmp ult i32 %9, 10
  br i1 %10, label %11, label %13

11:                                               ; preds = %1
  %12 = load i32, ptr %4, align 4
  store i32 %12, ptr %2, align 4
  store i32 1, ptr %6, align 4
  br label %28

13:                                               ; preds = %1
  store i32 10, ptr %5, align 4
  %14 = load i32, ptr %4, align 4
  %15 = sub i32 %14, 10
  %16 = shl i32 %15, 2
  %17 = load i32, ptr %5, align 4
  %18 = add i32 %17, %16
  store i32 %18, ptr %5, align 4
  %19 = load i32, ptr %3, align 4
  %20 = sub i32 %19, 1
  %21 = load i32, ptr %4, align 4
  %22 = sub i32 %21, 3
  %23 = lshr i32 %20, %22
  %24 = and i32 %23, 3
  %25 = load i32, ptr %5, align 4
  %26 = add i32 %25, %24
  store i32 %26, ptr %5, align 4
  %27 = load i32, ptr %5, align 4
  store i32 %27, ptr %2, align 4
  store i32 1, ptr %6, align 4
  br label %28

28:                                               ; preds = %13, %11
  call void @llvm.lifetime.end.p0(i64 4, ptr %5) #6
  call void @llvm.lifetime.end.p0(i64 4, ptr %4) #6
  %29 = load i32, ptr %2, align 4
  ret i32 %29
}

; Function Attrs: nounwind uwtable
define dso_local i32 @_hash_get_newbucket_from_oldbucket(ptr noundef %0, i32 noundef %1, i32 noundef %2, i32 noundef %3) #0 {
  %5 = alloca ptr, align 8
  %6 = alloca i32, align 4
  %7 = alloca i32, align 4
  %8 = alloca i32, align 4
  %9 = alloca i32, align 4
  store ptr %0, ptr %5, align 8
  store i32 %1, ptr %6, align 4
  store i32 %2, ptr %7, align 4
  store i32 %3, ptr %8, align 4
  call void @llvm.lifetime.start.p0(i64 4, ptr %9) #6
  %10 = load i32, ptr %6, align 4
  %11 = load i32, ptr %7, align 4
  %12 = add i32 %11, 1
  %13 = or i32 %10, %12
  store i32 %13, ptr %9, align 4
  %14 = load i32, ptr %9, align 4
  %15 = load i32, ptr %8, align 4
  %16 = icmp ugt i32 %14, %15
  br i1 %16, label %17, label %24

17:                                               ; preds = %4
  %18 = load i32, ptr %7, align 4
  %19 = lshr i32 %18, 1
  store i32 %19, ptr %7, align 4
  %20 = load i32, ptr %6, align 4
  %21 = load i32, ptr %7, align 4
  %22 = add i32 %21, 1
  %23 = or i32 %20, %22
  store i32 %23, ptr %9, align 4
  br label %24

24:                                               ; preds = %17, %4
  %25 = load i32, ptr %9, align 4
  call void @llvm.lifetime.end.p0(i64 4, ptr %9) #6
  ret i32 %25
}

; Function Attrs: inlinehint nounwind uwtable
define internal ptr @PageGetContents(ptr noundef %0) #3 {
  %2 = alloca ptr, align 8
  store ptr %0, ptr %2, align 8
  %3 = load ptr, ptr %2, align 8
  %4 = getelementptr inbounds nuw i8, ptr %3, i64 24
  ret ptr %4
}

; Function Attrs: inlinehint nounwind uwtable
define internal ptr @BufferGetPage(i32 noundef %0) #3 {
  %2 = alloca i32, align 4
  store i32 %0, ptr %2, align 4
  %3 = load i32, ptr %2, align 4
  %4 = call ptr @BufferGetBlock(i32 noundef %3)
  ret ptr %4
}

; Function Attrs: nounwind uwtable
define dso_local i32 @_hash_get_newblock_from_oldbucket(ptr noundef %0, i32 noundef %1) #0 {
  %3 = alloca ptr, align 8
  %4 = alloca i32, align 4
  %5 = alloca i32, align 4
  %6 = alloca i32, align 4
  %7 = alloca ptr, align 8
  %8 = alloca i32, align 4
  store ptr %0, ptr %3, align 8
  store i32 %1, ptr %4, align 4
  call void @llvm.lifetime.start.p0(i64 4, ptr %5) #6
  call void @llvm.lifetime.start.p0(i64 4, ptr %6) #6
  call void @llvm.lifetime.start.p0(i64 8, ptr %7) #6
  call void @llvm.lifetime.start.p0(i64 4, ptr %8) #6
  %9 = load ptr, ptr %3, align 8
  %10 = call i32 @_hash_getbuf(ptr noundef %9, i32 noundef 0, i32 noundef 1, i32 noundef 8)
  store i32 %10, ptr %6, align 4
  %11 = load i32, ptr %6, align 4
  %12 = call ptr @BufferGetPage(i32 noundef %11)
  %13 = call ptr @PageGetContents(ptr noundef %12)
  store ptr %13, ptr %7, align 8
  %14 = load ptr, ptr %3, align 8
  %15 = load i32, ptr %4, align 4
  %16 = load ptr, ptr %7, align 8
  %17 = getelementptr inbounds nuw %struct.HashMetaPageData, ptr %16, i32 0, i32 9
  %18 = load i32, ptr %17, align 8
  %19 = load ptr, ptr %7, align 8
  %20 = getelementptr inbounds nuw %struct.HashMetaPageData, ptr %19, i32 0, i32 7
  %21 = load i32, ptr %20, align 8
  %22 = call i32 @_hash_get_newbucket_from_oldbucket(ptr noundef %14, i32 noundef %15, i32 noundef %18, i32 noundef %21)
  store i32 %22, ptr %5, align 4
  %23 = load i32, ptr %5, align 4
  %24 = load i32, ptr %5, align 4
  %25 = icmp ne i32 %24, 0
  br i1 %25, label %26, label %36

26:                                               ; preds = %2
  %27 = load ptr, ptr %7, align 8
  %28 = getelementptr inbounds nuw %struct.HashMetaPageData, ptr %27, i32 0, i32 14
  %29 = load i32, ptr %5, align 4
  %30 = add i32 %29, 1
  %31 = call i32 @_hash_spareindex(i32 noundef %30)
  %32 = sub i32 %31, 1
  %33 = zext i32 %32 to i64
  %34 = getelementptr inbounds nuw [98 x i32], ptr %28, i64 0, i64 %33
  %35 = load i32, ptr %34, align 4
  br label %37

36:                                               ; preds = %2
  br label %37

37:                                               ; preds = %36, %26
  %38 = phi i32 [ %35, %26 ], [ 0, %36 ]
  %39 = add i32 %23, %38
  %40 = add i32 %39, 1
  store i32 %40, ptr %8, align 4
  %41 = load ptr, ptr %3, align 8
  %42 = load i32, ptr %6, align 4
  call void @_hash_relbuf(ptr noundef %41, i32 noundef %42)
  %43 = load i32, ptr %8, align 4
  call void @llvm.lifetime.end.p0(i64 4, ptr %8) #6
  call void @llvm.lifetime.end.p0(i64 8, ptr %7) #6
  call void @llvm.lifetime.end.p0(i64 4, ptr %6) #6
  call void @llvm.lifetime.end.p0(i64 4, ptr %5) #6
  ret i32 %43
}