; Function Attrs: nounwind uwtable
define dso_local i32 @_hash_get_newblock_from_oldbucket(ptr noundef %0, i32 noundef %1) local_unnamed_addr #1 {
  %3 = tail call i32 @_hash_getbuf(ptr noundef %0, i32 noundef 0, i32 noundef 1, i32 noundef 8) #8
  %4 = icmp slt i32 %3, 0
  br i1 %4, label %5, label %11

5:                                                ; preds = %2
  %6 = load ptr, ptr @LocalBufferBlockPointers, align 8
  %7 = xor i32 %3, -1
  %8 = zext nneg i32 %7 to i64
  %9 = getelementptr inbounds nuw ptr, ptr %6, i64 %8
  %10 = load ptr, ptr %9, align 8
  br label %BufferGetPage.exit

11:                                               ; preds = %2
  %12 = load ptr, ptr @BufferBlocks, align 8
  %13 = add nsw i32 %3, -1
  %14 = sext i32 %13 to i64
  %15 = shl nsw i64 %14, 13
  %16 = getelementptr inbounds nuw i8, ptr %12, i64 %15
  br label %BufferGetPage.exit

BufferGetPage.exit:                               ; preds = %5, %11
  %.0.i.i = phi ptr [ %10, %5 ], [ %16, %11 ]
  %17 = getelementptr inbounds nuw i8, ptr %.0.i.i, i64 56
  %18 = load i32, ptr %17, align 8
  %19 = getelementptr inbounds nuw i8, ptr %.0.i.i, i64 48
  %20 = load i32, ptr %19, align 8
  %21 = add i32 %18, 1
  %22 = or i32 %21, %1
  %23 = icmp ugt i32 %22, %20
  %24 = lshr i32 %18, 1
  %25 = add nuw i32 %24, 1
  %26 = or i32 %25, %1
  %.0.i = select i1 %23, i32 %26, i32 %22
  %.not = icmp eq i32 %.0.i, 0
  br i1 %.not, label %BufferGetPage.exit._crit_edge, label %27

27:                                               ; preds = %BufferGetPage.exit
  %28 = getelementptr inbounds nuw i8, ptr %.0.i.i, i64 76
  %29 = add i32 %.0.i, 1
  %30 = icmp ult i32 %29, 2
  %31 = tail call range(i32 0, 33) i32 @llvm.ctlz.i32(i32 %.0.i, i1 true)
  %32 = sub nuw nsw i32 32, %31
  %.0.i.i12 = select i1 %30, i32 0, i32 %32
  %33 = icmp samesign ult i32 %.0.i.i12, 10
  br i1 %33, label %_hash_spareindex.exit, label %34

34:                                               ; preds = %27
  %35 = shl nuw nsw i32 %.0.i.i12, 2
  %36 = add nsw i32 %35, -30
  %37 = add nsw i32 %.0.i.i12, -3
  %38 = lshr i32 %.0.i, %37
  %39 = and i32 %38, 3
  %40 = add nuw nsw i32 %36, %39
  br label %_hash_spareindex.exit

_hash_spareindex.exit:                            ; preds = %27, %34
  %.0.i13 = phi i32 [ %40, %34 ], [ %.0.i.i12, %27 ]
  %41 = add nsw i32 %.0.i13, -1
  %42 = zext i32 %41 to i64
  %43 = getelementptr inbounds nuw [98 x i32], ptr %28, i64 0, i64 %42
  %44 = load i32, ptr %43, align 4
  %45 = add i32 %29, %44
  br label %BufferGetPage.exit._crit_edge

BufferGetPage.exit._crit_edge:                    ; preds = %BufferGetPage.exit, %_hash_spareindex.exit
  %46 = phi i32 [ %45, %_hash_spareindex.exit ], [ 1, %BufferGetPage.exit ]
  tail call void @_hash_relbuf(ptr noundef %0, i32 noundef %3) #8
  ret i32 %46
}